target datalayout = "e-m:e-p270:32:32-p271:32:32-p272:64:64-i64:64-i128:128-f80:128-n8:16:32:64-S128"
target triple = "x86_64-pc-linux-gnu"

@.str.12 = private unnamed_addr constant [57 x i8] c"%s:%d  expected %0.3e, got %0.3e (diff %0.3e, tol %0.3e)\00", align 1

; Function Attrs: nounwind uwtable
define void @assert_dbl_far(double noundef %0, double noundef %1, double noundef %2, ptr noundef %3, i32 noundef %4) #0 {
  %6 = alloca double, align 8
  %7 = alloca double, align 8
  %8 = alloca double, align 8
  %9 = alloca ptr, align 8
  %10 = alloca i32, align 4
  %11 = alloca double, align 8
  %12 = alloca double, align 8
  store double %0, ptr %6, align 8, !tbaa !17
  store double %1, ptr %7, align 8, !tbaa !17
  store double %2, ptr %8, align 8, !tbaa !17
  store ptr %3, ptr %9, align 8, !tbaa !3
  store i32 %4, ptr %10, align 4, !tbaa !8
  call void @llvm.lifetime.start.p0(i64 8, ptr %11) #9
  %13 = load double, ptr %6, align 8, !tbaa !17
  %14 = load double, ptr %7, align 8, !tbaa !17
  %15 = fsub double %13, %14
  store double %15, ptr %11, align 8, !tbaa !17
  call void @llvm.lifetime.start.p0(i64 8, ptr %12) #9
  %16 = load double, ptr %11, align 8, !tbaa !17
  store double %16, ptr %12, align 8, !tbaa !17
  %17 = load double, ptr %11, align 8, !tbaa !17
  %18 = fcmp olt double %17, 0.000000e+00
  br i1 %18, label %19, label %22

19:                                               ; preds = %5
  %20 = load double, ptr %12, align 8, !tbaa !17
  %21 = fmul double %20, -1.000000e+00
  store double %21, ptr %12, align 8, !tbaa !17
  br label %22

22:                                               ; preds = %19, %5
  %23 = load double, ptr %12, align 8, !tbaa !17
  %24 = load double, ptr %8, align 8, !tbaa !17
  %25 = fcmp ole double %23, %24
  br i1 %25, label %26, label %33

26:                                               ; preds = %22
  %27 = load ptr, ptr %9, align 8, !tbaa !3
  %28 = load i32, ptr %10, align 4, !tbaa !8
  %29 = load double, ptr %6, align 8, !tbaa !17
  %30 = load double, ptr %7, align 8, !tbaa !17
  %31 = load double, ptr %11, align 8, !tbaa !17
  %32 = load double, ptr %8, align 8, !tbaa !17
  call void (ptr, ...) @CTEST_ERR(ptr noundef @.str.12, ptr noundef %27, i32 noundef %28, double noundef %29, double noundef %30, double noundef %31, double noundef %32)
  br label %33

33:                                               ; preds = %26, %22
  call void @llvm.lifetime.end.p0(i64 8, ptr %12) #9
  call void @llvm.lifetime.end.p0(i64 8, ptr %11) #9
  ret void
}