; Function Attrs: nounwind uwtable
define void @assert_dbl_far(double noundef %0, double noundef %1, double noundef %2, ptr noundef %3, i32 noundef %4) local_unnamed_addr #6 {
  %6 = fsub double %0, %1
  %7 = fcmp olt double %6, 0.000000e+00
  %8 = fneg double %6
  %.0 = select i1 %7, double %8, double %6
  %9 = fcmp ugt double %.0, %2
  br i1 %9, label %11, label %10

10:                                               ; preds = %5
  tail call void (ptr, ...) @CTEST_ERR(ptr noundef nonnull @.str.12, ptr noundef %3, i32 noundef %4, double noundef %0, double noundef %1, double noundef %6, double noundef %2)
  unreachable

11:                                               ; preds = %5
  ret void
}